; Function Attrs: mustprogress uwtable
define hidden noundef zeroext i1 @_ZN4cvc58internal6theory22EqEngineManagerCentral27eqNotifyTriggerTermEqualityENS1_8TheoryIdENS0_12NodeTemplateILb0EEES5_b(ptr nocapture noundef nonnull readonly align 8 dereferenceable(2112) %this, i32 noundef %tag, ptr noundef nonnull %a, ptr noundef nonnull %b, i1 noundef zeroext %value) local_unnamed_addr #3 align 2 personality ptr @__gxx_personality_v0 {
entry:
  %agg.tmp = alloca %"class.cvc5::internal::NodeTemplate.568", align 8
  %ref.tmp = alloca %"class.cvc5::internal::NodeTemplate", align 8
  %agg.tmp9 = alloca %"class.cvc5::internal::NodeTemplate.568", align 8
  %agg.tmp10 = alloca %"class.cvc5::internal::NodeTemplate.568", align 8
  %d_sharedSolver = getelementptr inbounds i8, ptr %this, i64 24
  %0 = load ptr, ptr %d_sharedSolver, align 8
  call void @_ZNK4cvc58internal12NodeTemplateILb0EE6eqNodeILb0EEENS1_ILb1EEERKNS1_IXT_EEE(ptr nonnull sret(%"class.cvc5::internal::NodeTemplate") align 8 %ref.tmp, ptr noundef nonnull align 8 dereferenceable(8) %a, ptr noundef nonnull align 8 dereferenceable(8) %b)
  %1 = load ptr, ptr %ref.tmp, align 8
  store ptr %1, ptr %agg.tmp, align 8
  %call = invoke noundef zeroext i1 @_ZN4cvc58internal6theory12SharedSolver12propagateLitENS0_12NodeTemplateILb0EEEb(ptr noundef nonnull align 8 dereferenceable(976) %0, ptr noundef nonnull %agg.tmp, i1 noundef zeroext %value)
          to label %invoke.cont3 unwind label %lpad2

invoke.cont3:                                     ; preds = %entry
  %2 = load ptr, ptr %ref.tmp, align 8
  %bf.load.i.i = load i64, ptr %2, align 8
  %3 = and i64 %bf.load.i.i, 1152920405095219200
  %cmp.not.i.i = icmp eq i64 %3, 1152920405095219200
  br i1 %cmp.not.i.i, label %_ZN4cvc58internal12NodeTemplateILb1EED2Ev.exit, label %if.then.i.i

if.then.i.i:                                      ; preds = %invoke.cont3
  %bf.value.i.i = add i64 %bf.load.i.i, 1152920405095219200
  %bf.shl.i.i = and i64 %bf.value.i.i, 1152920405095219200
  %bf.clear7.i.i = and i64 %bf.load.i.i, -1152920405095219201
  %bf.set.i.i = or disjoint i64 %bf.shl.i.i, %bf.clear7.i.i
  store i64 %bf.set.i.i, ptr %2, align 8
  %cmp12.i.i = icmp eq i64 %bf.shl.i.i, 0
  br i1 %cmp12.i.i, label %if.then13.i.i, label %_ZN4cvc58internal12NodeTemplateILb1EED2Ev.exit

if.then13.i.i:                                    ; preds = %if.then.i.i
  invoke void @_ZN4cvc58internal4expr9NodeValue15markForDeletionEv(ptr noundef nonnull align 8 dereferenceable(16) %2)
          to label %_ZN4cvc58internal12NodeTemplateILb1EED2Ev.exit unwind label %terminate.lpad.i

terminate.lpad.i:                                 ; preds = %if.then13.i.i
  %4 = landingpad { ptr, i32 }
          catch ptr null
  %5 = extractvalue { ptr, i32 } %4, 0
  call void @__clang_call_terminate(ptr %5) #24
  unreachable

_ZN4cvc58internal12NodeTemplateILb1EED2Ev.exit:   ; preds = %invoke.cont3, %if.then.i.i, %if.then13.i.i
  br i1 %call, label %if.end, label %return

lpad2:                                            ; preds = %entry
  %6 = landingpad { ptr, i32 }
          cleanup
  call void @_ZN4cvc58internal12NodeTemplateILb1EED2Ev(ptr noundef nonnull align 8 dereferenceable(8) %ref.tmp) #21
  resume { ptr, i32 } %6

if.end:                                           ; preds = %_ZN4cvc58internal12NodeTemplateILb1EED2Ev.exit
  %cmp = icmp eq i32 %tag, 2
  br i1 %cmp, label %return, label %if.end7

if.end7:                                          ; preds = %if.end
  %7 = load ptr, ptr %d_sharedSolver, align 8
  %8 = load ptr, ptr %a, align 8
  store ptr %8, ptr %agg.tmp9, align 8
  %9 = load ptr, ptr %b, align 8
  store ptr %9, ptr %agg.tmp10, align 8
  %call16 = call noundef zeroext i1 @_ZN4cvc58internal6theory12SharedSolver23propagateSharedEqualityENS1_8TheoryIdENS0_12NodeTemplateILb0EEES5_b(ptr noundef nonnull align 8 dereferenceable(976) %7, i32 noundef %tag, ptr noundef nonnull %agg.tmp9, ptr noundef nonnull %agg.tmp10, i1 noundef zeroext %value)
  br label %return

return:                                           ; preds = %if.end7, %if.end, %_ZN4cvc58internal12NodeTemplateILb1EED2Ev.exit
  %retval.0 = phi i1 [ false, %_ZN4cvc58internal12NodeTemplateILb1EED2Ev.exit ], [ true, %if.end ], [ %call16, %if.end7 ]
  ret i1 %retval.0
}